target datalayout = "e-m:e-p270:32:32-p271:32:32-p272:64:64-i64:64-i128:128-f80:128-n8:16:32:64-S128"
target triple = "x86_64-pc-linux-gnu"

%class.XMMRegister = type { i32 }

; Function Attrs: mustprogress nounwind uwtable
define hidden void @_ZN17C2_MacroAssembler9varshiftwEi11XMMRegisterS0_S0_i(ptr noundef nonnull align 8 dereferenceable(40) %0, i32 noundef %1, i32 %2, i32 %3, i32 %4, i32 noundef %5) #1 align 2 {
  %7 = alloca %class.XMMRegister, align 4
  %8 = alloca %class.XMMRegister, align 4
  %9 = alloca %class.XMMRegister, align 4
  %10 = alloca ptr, align 8
  %11 = alloca i32, align 4
  %12 = alloca i32, align 4
  %13 = alloca %class.XMMRegister, align 4
  %14 = alloca %class.XMMRegister, align 4
  %15 = alloca %class.XMMRegister, align 4
  %16 = alloca %class.XMMRegister, align 4
  %17 = alloca %class.XMMRegister, align 4
  %18 = alloca %class.XMMRegister, align 4
  %19 = alloca %class.XMMRegister, align 4
  %20 = alloca %class.XMMRegister, align 4
  %21 = alloca %class.XMMRegister, align 4
  %22 = getelementptr inbounds %class.XMMRegister, ptr %7, i32 0, i32 0
  store i32 %2, ptr %22, align 4
  %23 = getelementptr inbounds %class.XMMRegister, ptr %8, i32 0, i32 0
  store i32 %3, ptr %23, align 4
  %24 = getelementptr inbounds %class.XMMRegister, ptr %9, i32 0, i32 0
  store i32 %4, ptr %24, align 4
  store ptr %0, ptr %10, align 8
  store i32 %1, ptr %11, align 4
  store i32 %5, ptr %12, align 4
  %25 = load ptr, ptr %10, align 8
  %26 = load i32, ptr %11, align 4
  switch i32 %26, label %51 [
    i32 405, label %27
    i32 406, label %27
    i32 401, label %35
    i32 402, label %35
    i32 409, label %43
    i32 410, label %43
  ]

27:                                               ; preds = %6, %6
  call void @llvm.memcpy.p0.p0.i64(ptr align 4 %13, ptr align 4 %7, i64 4, i1 false)
  call void @llvm.memcpy.p0.p0.i64(ptr align 4 %14, ptr align 4 %8, i64 4, i1 false)
  call void @llvm.memcpy.p0.p0.i64(ptr align 4 %15, ptr align 4 %9, i64 4, i1 false)
  %28 = load i32, ptr %12, align 4
  %29 = getelementptr inbounds %class.XMMRegister, ptr %13, i32 0, i32 0
  %30 = load i32, ptr %29, align 4
  %31 = getelementptr inbounds %class.XMMRegister, ptr %14, i32 0, i32 0
  %32 = load i32, ptr %31, align 4
  %33 = getelementptr inbounds %class.XMMRegister, ptr %15, i32 0, i32 0
  %34 = load i32, ptr %33, align 4
  call void @_ZN9Assembler8evpsravwE11XMMRegisterS0_S0_i(ptr noundef nonnull align 8 dereferenceable(40) %25, i32 %30, i32 %32, i32 %34, i32 noundef %28)
  br label %52

35:                                               ; preds = %6, %6
  call void @llvm.memcpy.p0.p0.i64(ptr align 4 %16, ptr align 4 %7, i64 4, i1 false)
  call void @llvm.memcpy.p0.p0.i64(ptr align 4 %17, ptr align 4 %8, i64 4, i1 false)
  call void @llvm.memcpy.p0.p0.i64(ptr align 4 %18, ptr align 4 %9, i64 4, i1 false)
  %36 = load i32, ptr %12, align 4
  %37 = getelementptr inbounds %class.XMMRegister, ptr %16, i32 0, i32 0
  %38 = load i32, ptr %37, align 4
  %39 = getelementptr inbounds %class.XMMRegister, ptr %17, i32 0, i32 0
  %40 = load i32, ptr %39, align 4
  %41 = getelementptr inbounds %class.XMMRegister, ptr %18, i32 0, i32 0
  %42 = load i32, ptr %41, align 4
  call void @_ZN9Assembler8evpsllvwE11XMMRegisterS0_S0_i(ptr noundef nonnull align 8 dereferenceable(40) %25, i32 %38, i32 %40, i32 %42, i32 noundef %36)
  br label %52

43:                                               ; preds = %6, %6
  call void @llvm.memcpy.p0.p0.i64(ptr align 4 %19, ptr align 4 %7, i64 4, i1 false)
  call void @llvm.memcpy.p0.p0.i64(ptr align 4 %20, ptr align 4 %8, i64 4, i1 false)
  call void @llvm.memcpy.p0.p0.i64(ptr align 4 %21, ptr align 4 %9, i64 4, i1 false)
  %44 = load i32, ptr %12, align 4
  %45 = getelementptr inbounds %class.XMMRegister, ptr %19, i32 0, i32 0
  %46 = load i32, ptr %45, align 4
  %47 = getelementptr inbounds %class.XMMRegister, ptr %20, i32 0, i32 0
  %48 = load i32, ptr %47, align 4
  %49 = getelementptr inbounds %class.XMMRegister, ptr %21, i32 0, i32 0
  %50 = load i32, ptr %49, align 4
  call void @_ZN9Assembler8evpsrlvwE11XMMRegisterS0_S0_i(ptr noundef nonnull align 8 dereferenceable(40) %25, i32 %46, i32 %48, i32 %50, i32 noundef %44)
  br label %52

51:                                               ; preds = %6
  br label %52

52:                                               ; preds = %51, %43, %35, %27
  ret void
}