; Function Attrs: mustprogress nounwind uwtable
define hidden void @_ZN17C2_MacroAssembler9varshiftwEi11XMMRegisterS0_S0_i(ptr noundef nonnull align 8 dereferenceable(40) %0, i32 noundef %1, i32 %2, i32 %3, i32 %4, i32 noundef %5) local_unnamed_addr #0 align 2 {
  switch i32 %1, label %10 [
    i32 405, label %7
    i32 406, label %7
    i32 401, label %8
    i32 402, label %8
    i32 409, label %9
    i32 410, label %9
  ]

7:                                                ; preds = %6, %6
  tail call void @_ZN9Assembler8evpsravwE11XMMRegisterS0_S0_i(ptr noundef nonnull align 8 dereferenceable(40) %0, i32 %2, i32 %3, i32 %4, i32 noundef %5) #11
  br label %10

8:                                                ; preds = %6, %6
  tail call void @_ZN9Assembler8evpsllvwE11XMMRegisterS0_S0_i(ptr noundef nonnull align 8 dereferenceable(40) %0, i32 %2, i32 %3, i32 %4, i32 noundef %5) #11
  br label %10

9:                                                ; preds = %6, %6
  tail call void @_ZN9Assembler8evpsrlvwE11XMMRegisterS0_S0_i(ptr noundef nonnull align 8 dereferenceable(40) %0, i32 %2, i32 %3, i32 %4, i32 noundef %5) #11
  br label %10

10:                                               ; preds = %6, %9, %8, %7
  ret void
}